target datalayout = "e-m:e-p270:32:32-p271:32:32-p272:64:64-i64:64-i128:128-f80:128-n8:16:32:64-S128"
target triple = "x86_64-pc-linux-gnu"

%"class.absl::lts_20240722::log_internal::Voidify" = type { i8 }
%"class.absl::lts_20240722::log_internal::LogMessage" = type { %"class.absl::lts_20240722::base_internal::ErrnoSaver", %"class.std::unique_ptr" }
%"class.absl::lts_20240722::base_internal::ErrnoSaver" = type { i32 }
%"class.std::unique_ptr" = type { %"struct.std::__uniq_ptr_data" }
%"struct.std::__uniq_ptr_data" = type { %"class.std::__uniq_ptr_impl" }
%"class.std::__uniq_ptr_impl" = type { %"class.std::tuple" }
%"class.std::tuple" = type { %"struct.std::_Tuple_impl" }
%"struct.std::_Tuple_impl" = type { %"struct.std::_Head_base.1" }
%"struct.std::_Head_base.1" = type { ptr }
%struct.grpc_slice = type { ptr, %"union.grpc_slice::grpc_slice_data" }
%"union.grpc_slice::grpc_slice_data" = type { %"struct.grpc_slice::grpc_slice_data::grpc_slice_refcounted", [8 x i8] }
%"struct.grpc_slice::grpc_slice_data::grpc_slice_refcounted" = type { i64, ptr }
%"struct.grpc_slice::grpc_slice_data::grpc_slice_inlined" = type { i8, [23 x i8] }
%"class.std::basic_string_view" = type { i64, ptr }

@.str = private unnamed_addr constant [142 x i8] c"generated/home/dtcxzyw/WorkSpace/Projects/compilers/llvm-opt-benchmark/bench/grpc/grpc/src/core/ext/transport/chttp2/transport/bin_decoder.cc\00", align 1
@.str.1 = private unnamed_addr constant [56 x i8] c"Base64 decoding failed. Input has more than 2 paddings.\00", align 1
@.str.2 = private unnamed_addr constant [47 x i8] c"Base64 decoding failed. Input has a length of \00", align 1
@.str.3 = private unnamed_addr constant [39 x i8] c" (without padding), which is invalid.\0A\00", align 1
@_ZL9tail_xtra = internal constant [4 x i8] c"\00\00\01\02", align 1

; Function Attrs: noinline noreturn nounwind uwtable
define linkonce_odr hidden void @__clang_call_terminate(ptr noundef %0) #15 comdat {
  %2 = call ptr @__cxa_begin_catch(ptr %0) #3
  call void @_ZSt9terminatev() #19
  unreachable
}

; Function Attrs: mustprogress nounwind uwtable
define linkonce_odr noundef i64 @_ZNSt11char_traitsIcE6lengthEPKc(ptr noundef %0) #7 comdat align 2 {
  %2 = alloca ptr, align 8
  store ptr %0, ptr %2, align 8, !tbaa !14
  %3 = load ptr, ptr %2, align 8, !tbaa !14
  %4 = call i64 @strlen(ptr noundef %3) #3
  ret i64 %4
}

; Function Attrs: mustprogress nounwind uwtable
define linkonce_odr void @_ZNSt17basic_string_viewIcSt11char_traitsIcEEC2EPKc(ptr noundef nonnull align 8 dereferenceable(16) %0, ptr noundef nonnull %1) unnamed_addr #7 comdat align 2 personality ptr @__gxx_personality_v0 {
  %3 = alloca ptr, align 8
  %4 = alloca ptr, align 8
  store ptr %0, ptr %3, align 8, !tbaa !42
  store ptr %1, ptr %4, align 8, !tbaa !14
  %5 = load ptr, ptr %3, align 8
  %6 = getelementptr inbounds nuw %"class.std::basic_string_view", ptr %5, i32 0, i32 0
  %7 = load ptr, ptr %4, align 8, !tbaa !14
  %8 = invoke noundef i64 @_ZNSt11char_traitsIcE6lengthEPKc(ptr noundef %7)
          to label %9 unwind label %12

9:                                                ; preds = %2
  store i64 %8, ptr %6, align 8, !tbaa !44
  %10 = getelementptr inbounds nuw %"class.std::basic_string_view", ptr %5, i32 0, i32 1
  %11 = load ptr, ptr %4, align 8, !tbaa !14
  store ptr %11, ptr %10, align 8, !tbaa !46
  ret void

12:                                               ; preds = %2
  %13 = landingpad { ptr, i32 }
          catch ptr null
  %14 = extractvalue { ptr, i32 } %13, 0
  call void @__clang_call_terminate(ptr %14) #19
  unreachable
}

; Function Attrs: mustprogress uwtable
define linkonce_odr noundef nonnull align 8 dereferenceable(16) ptr @_ZN4absl12lts_2024072212log_internal10LogMessagelsILi39EEERS2_RAT__Kc(ptr noundef nonnull align 8 dereferenceable(16) %0, ptr noundef nonnull align 1 dereferenceable(39) %1) #4 comdat align 2 {
  %3 = alloca ptr, align 8
  %4 = alloca ptr, align 8
  %5 = alloca %"class.std::basic_string_view", align 8
  store ptr %0, ptr %3, align 8, !tbaa !20
  store ptr %1, ptr %4, align 8, !tbaa !14
  %6 = load ptr, ptr %3, align 8
  %7 = load ptr, ptr %4, align 8, !tbaa !14
  %8 = getelementptr inbounds [39 x i8], ptr %7, i64 0, i64 0
  call void @_ZNSt17basic_string_viewIcSt11char_traitsIcEEC2EPKc(ptr noundef nonnull align 8 dereferenceable(16) %5, ptr noundef %8) #3
  %9 = getelementptr inbounds nuw { i64, ptr }, ptr %5, i32 0, i32 0
  %10 = load i64, ptr %9, align 8
  %11 = getelementptr inbounds nuw { i64, ptr }, ptr %5, i32 0, i32 1
  %12 = load ptr, ptr %11, align 8
  call void @_ZN4absl12lts_2024072212log_internal10LogMessage19CopyToEncodedBufferILNS2_10StringTypeE0EEEvSt17basic_string_viewIcSt11char_traitsIcEE(ptr noundef nonnull align 8 dereferenceable(16) %6, i64 %10, ptr %12)
  ret ptr %6
}

; Function Attrs: mustprogress uwtable
define linkonce_odr noundef nonnull align 8 dereferenceable(16) ptr @_ZN4absl12lts_2024072212log_internal10LogMessagelsEm(ptr noundef nonnull align 8 dereferenceable(16) %0, i64 noundef %1) #4 comdat align 2 {
  %3 = alloca ptr, align 8
  %4 = alloca i64, align 8
  store ptr %0, ptr %3, align 8, !tbaa !20
  store i64 %1, ptr %4, align 8, !tbaa !12
  %5 = load ptr, ptr %3, align 8
  %6 = call noundef nonnull align 8 dereferenceable(16) ptr @_ZN4absl12lts_2024072212log_internal10LogMessagelsImTnNSt9enable_ifIXntsr4absl16HasAbslStringifyIT_EE5valueEiE4typeELi0EEERS2_RKS5_(ptr noundef nonnull align 8 dereferenceable(16) %5, ptr noundef nonnull align 8 dereferenceable(8) %4)
  ret ptr %6
}

; Function Attrs: mustprogress uwtable
define linkonce_odr noundef nonnull align 8 dereferenceable(16) ptr @_ZN4absl12lts_2024072212log_internal10LogMessagelsILi47EEERS2_RAT__Kc(ptr noundef nonnull align 8 dereferenceable(16) %0, ptr noundef nonnull align 1 dereferenceable(47) %1) #4 comdat align 2 {
  %3 = alloca ptr, align 8
  %4 = alloca ptr, align 8
  %5 = alloca %"class.std::basic_string_view", align 8
  store ptr %0, ptr %3, align 8, !tbaa !20
  store ptr %1, ptr %4, align 8, !tbaa !14
  %6 = load ptr, ptr %3, align 8
  %7 = load ptr, ptr %4, align 8, !tbaa !14
  %8 = getelementptr inbounds [47 x i8], ptr %7, i64 0, i64 0
  call void @_ZNSt17basic_string_viewIcSt11char_traitsIcEEC2EPKc(ptr noundef nonnull align 8 dereferenceable(16) %5, ptr noundef %8) #3
  %9 = getelementptr inbounds nuw { i64, ptr }, ptr %5, i32 0, i32 0
  %10 = load i64, ptr %9, align 8
  %11 = getelementptr inbounds nuw { i64, ptr }, ptr %5, i32 0, i32 1
  %12 = load ptr, ptr %11, align 8
  call void @_ZN4absl12lts_2024072212log_internal10LogMessage19CopyToEncodedBufferILNS2_10StringTypeE0EEEvSt17basic_string_viewIcSt11char_traitsIcEE(ptr noundef nonnull align 8 dereferenceable(16) %6, i64 %10, ptr %12)
  ret ptr %6
}

; Function Attrs: mustprogress nounwind uwtable
define linkonce_odr void @_ZNKO4absl12lts_2024072212log_internal7VoidifyaaINS1_10LogMessageEEEvRKT_(ptr noundef nonnull align 1 dereferenceable(1) %0, ptr noundef nonnull align 8 dereferenceable(16) %1) #7 comdat align 2 {
  %3 = alloca ptr, align 8
  %4 = alloca ptr, align 8
  store ptr %0, ptr %3, align 8, !tbaa !18
  store ptr %1, ptr %4, align 8, !tbaa !20
  ret void
}

; Function Attrs: mustprogress uwtable
define linkonce_odr noundef nonnull align 8 dereferenceable(16) ptr @_ZN4absl12lts_2024072212log_internal10LogMessagelsILi56EEERS2_RAT__Kc(ptr noundef nonnull align 8 dereferenceable(16) %0, ptr noundef nonnull align 1 dereferenceable(56) %1) #4 comdat align 2 {
  %3 = alloca ptr, align 8
  %4 = alloca ptr, align 8
  %5 = alloca %"class.std::basic_string_view", align 8
  store ptr %0, ptr %3, align 8, !tbaa !20
  store ptr %1, ptr %4, align 8, !tbaa !14
  %6 = load ptr, ptr %3, align 8
  %7 = load ptr, ptr %4, align 8, !tbaa !14
  %8 = getelementptr inbounds [56 x i8], ptr %7, i64 0, i64 0
  call void @_ZNSt17basic_string_viewIcSt11char_traitsIcEEC2EPKc(ptr noundef nonnull align 8 dereferenceable(16) %5, ptr noundef %8) #3
  %9 = getelementptr inbounds nuw { i64, ptr }, ptr %5, i32 0, i32 0
  %10 = load i64, ptr %9, align 8
  %11 = getelementptr inbounds nuw { i64, ptr }, ptr %5, i32 0, i32 1
  %12 = load ptr, ptr %11, align 8
  call void @_ZN4absl12lts_2024072212log_internal10LogMessage19CopyToEncodedBufferILNS2_10StringTypeE0EEEvSt17basic_string_viewIcSt11char_traitsIcEE(ptr noundef nonnull align 8 dereferenceable(16) %6, i64 %10, ptr %12)
  ret ptr %6
}

; Function Attrs: mustprogress nounwind uwtable
define linkonce_odr noundef nonnull align 8 dereferenceable(16) ptr @_ZN4absl12lts_2024072212log_internal10LogMessage14InternalStreamEv(ptr noundef nonnull align 8 dereferenceable(16) %0) #7 comdat align 2 {
  %2 = alloca ptr, align 8
  store ptr %0, ptr %2, align 8, !tbaa !20
  %3 = load ptr, ptr %2, align 8
  ret ptr %3
}

; Function Attrs: mustprogress uwtable
define noundef i64 @_Z44grpc_chttp2_base64_infer_length_after_decodeRK10grpc_slice(ptr noundef nonnull align 8 dereferenceable(32) %0) #4 personality ptr @__gxx_personality_v0 {
  %2 = alloca i64, align 8
  %3 = alloca ptr, align 8
  %4 = alloca i64, align 8
  %5 = alloca ptr, align 8
  %6 = alloca %"class.absl::lts_20240722::log_internal::Voidify", align 1
  %7 = alloca %"class.absl::lts_20240722::log_internal::LogMessage", align 8
  %8 = alloca ptr, align 8
  %9 = alloca i32, align 4
  %10 = alloca i32, align 4
  %11 = alloca i64, align 8
  %12 = alloca i64, align 8
  %13 = alloca %"class.absl::lts_20240722::log_internal::Voidify", align 1
  %14 = alloca %"class.absl::lts_20240722::log_internal::LogMessage", align 8
  store ptr %0, ptr %3, align 8, !tbaa !3
  call void @llvm.lifetime.start.p0(i64 8, ptr %4) #3
  %15 = load ptr, ptr %3, align 8, !tbaa !3
  %16 = getelementptr inbounds nuw %struct.grpc_slice, ptr %15, i32 0, i32 0
  %17 = load ptr, ptr %16, align 8, !tbaa !8
  %18 = icmp ne ptr %17, null
  br i1 %18, label %19, label %24

19:                                               ; preds = %1
  %20 = load ptr, ptr %3, align 8, !tbaa !3
  %21 = getelementptr inbounds nuw %struct.grpc_slice, ptr %20, i32 0, i32 1
  %22 = getelementptr inbounds nuw %"struct.grpc_slice::grpc_slice_data::grpc_slice_refcounted", ptr %21, i32 0, i32 0
  %23 = load i64, ptr %22, align 8, !tbaa !11
  br label %30

24:                                               ; preds = %1
  %25 = load ptr, ptr %3, align 8, !tbaa !3
  %26 = getelementptr inbounds nuw %struct.grpc_slice, ptr %25, i32 0, i32 1
  %27 = getelementptr inbounds nuw %"struct.grpc_slice::grpc_slice_data::grpc_slice_inlined", ptr %26, i32 0, i32 0
  %28 = load i8, ptr %27, align 8, !tbaa !11
  %29 = zext i8 %28 to i64
  br label %30

30:                                               ; preds = %24, %19
  %31 = phi i64 [ %23, %19 ], [ %29, %24 ]
  store i64 %31, ptr %4, align 8, !tbaa !12
  call void @llvm.lifetime.start.p0(i64 8, ptr %5) #3
  %32 = load ptr, ptr %3, align 8, !tbaa !3
  %33 = getelementptr inbounds nuw %struct.grpc_slice, ptr %32, i32 0, i32 0
  %34 = load ptr, ptr %33, align 8, !tbaa !8
  %35 = icmp ne ptr %34, null
  br i1 %35, label %36, label %41

36:                                               ; preds = %30
  %37 = load ptr, ptr %3, align 8, !tbaa !3
  %38 = getelementptr inbounds nuw %struct.grpc_slice, ptr %37, i32 0, i32 1
  %39 = getelementptr inbounds nuw %"struct.grpc_slice::grpc_slice_data::grpc_slice_refcounted", ptr %38, i32 0, i32 1
  %40 = load ptr, ptr %39, align 8, !tbaa !11
  br label %46

41:                                               ; preds = %30
  %42 = load ptr, ptr %3, align 8, !tbaa !3
  %43 = getelementptr inbounds nuw %struct.grpc_slice, ptr %42, i32 0, i32 1
  %44 = getelementptr inbounds nuw %"struct.grpc_slice::grpc_slice_data::grpc_slice_inlined", ptr %43, i32 0, i32 1
  %45 = getelementptr inbounds [23 x i8], ptr %44, i64 0, i64 0
  br label %46

46:                                               ; preds = %41, %36
  %47 = phi ptr [ %40, %36 ], [ %45, %41 ]
  store ptr %47, ptr %5, align 8, !tbaa !14
  br label %48

48:                                               ; preds = %61, %46
  %49 = load i64, ptr %4, align 8, !tbaa !12
  %50 = icmp ugt i64 %49, 0
  br i1 %50, label %51, label %59

51:                                               ; preds = %48
  %52 = load ptr, ptr %5, align 8, !tbaa !14
  %53 = load i64, ptr %4, align 8, !tbaa !12
  %54 = sub i64 %53, 1
  %55 = getelementptr inbounds nuw i8, ptr %52, i64 %54
  %56 = load i8, ptr %55, align 1, !tbaa !11
  %57 = zext i8 %56 to i32
  %58 = icmp eq i32 %57, 61
  br label %59

59:                                               ; preds = %51, %48
  %60 = phi i1 [ false, %48 ], [ %58, %51 ]
  br i1 %60, label %61, label %64

61:                                               ; preds = %59
  %62 = load i64, ptr %4, align 8, !tbaa !12
  %63 = add i64 %62, -1
  store i64 %63, ptr %4, align 8, !tbaa !12
  br label %48, !llvm.loop !16

64:                                               ; preds = %59
  %65 = load ptr, ptr %3, align 8, !tbaa !3
  %66 = getelementptr inbounds nuw %struct.grpc_slice, ptr %65, i32 0, i32 0
  %67 = load ptr, ptr %66, align 8, !tbaa !8
  %68 = icmp ne ptr %67, null
  br i1 %68, label %69, label %74

69:                                               ; preds = %64
  %70 = load ptr, ptr %3, align 8, !tbaa !3
  %71 = getelementptr inbounds nuw %struct.grpc_slice, ptr %70, i32 0, i32 1
  %72 = getelementptr inbounds nuw %"struct.grpc_slice::grpc_slice_data::grpc_slice_refcounted", ptr %71, i32 0, i32 0
  %73 = load i64, ptr %72, align 8, !tbaa !11
  br label %80

74:                                               ; preds = %64
  %75 = load ptr, ptr %3, align 8, !tbaa !3
  %76 = getelementptr inbounds nuw %struct.grpc_slice, ptr %75, i32 0, i32 1
  %77 = getelementptr inbounds nuw %"struct.grpc_slice::grpc_slice_data::grpc_slice_inlined", ptr %76, i32 0, i32 0
  %78 = load i8, ptr %77, align 8, !tbaa !11
  %79 = zext i8 %78 to i64
  br label %80

80:                                               ; preds = %74, %69
  %81 = phi i64 [ %73, %69 ], [ %79, %74 ]
  %82 = load i64, ptr %4, align 8, !tbaa !12
  %83 = sub i64 %81, %82
  %84 = icmp ugt i64 %83, 2
  %85 = zext i1 %84 to i64
  %86 = call i64 @llvm.expect.i64(i64 %85, i64 0)
  %87 = icmp ne i64 %86, 0
  br i1 %87, label %88, label %98

88:                                               ; preds = %80
  call void @llvm.lifetime.start.p0(i64 1, ptr %6) #3
  call void @llvm.lifetime.start.p0(i64 16, ptr %7) #3
  call void @_ZN4absl12lts_2024072212log_internal10LogMessageC1EPKciNS2_8ErrorTagE(ptr noundef nonnull align 8 dereferenceable(16) %7, ptr noundef @.str, i32 noundef 89) #17
  %89 = invoke noundef nonnull align 8 dereferenceable(16) ptr @_ZN4absl12lts_2024072212log_internal10LogMessage14InternalStreamEv(ptr noundef nonnull align 8 dereferenceable(16) %7)
          to label %90 unwind label %94

90:                                               ; preds = %88
  %91 = invoke noundef nonnull align 8 dereferenceable(16) ptr @_ZN4absl12lts_2024072212log_internal10LogMessagelsILi56EEERS2_RAT__Kc(ptr noundef nonnull align 8 dereferenceable(16) %89, ptr noundef nonnull align 1 dereferenceable(56) @.str.1)
          to label %92 unwind label %94

92:                                               ; preds = %90
  invoke void @_ZNKO4absl12lts_2024072212log_internal7VoidifyaaINS1_10LogMessageEEEvRKT_(ptr noundef nonnull align 1 dereferenceable(1) %6, ptr noundef nonnull align 8 dereferenceable(16) %91)
          to label %93 unwind label %94

93:                                               ; preds = %92
  call void @_ZN4absl12lts_2024072212log_internal10LogMessageD1Ev(ptr noundef nonnull align 8 dereferenceable(16) %7) #18
  call void @llvm.lifetime.end.p0(i64 16, ptr %7) #3
  call void @llvm.lifetime.end.p0(i64 1, ptr %6) #3
  store i64 0, ptr %2, align 8
  store i32 1, ptr %10, align 4
  br label %132

94:                                               ; preds = %92, %90, %88
  %95 = landingpad { ptr, i32 }
          cleanup
  %96 = extractvalue { ptr, i32 } %95, 0
  store ptr %96, ptr %8, align 8
  %97 = extractvalue { ptr, i32 } %95, 1
  store i32 %97, ptr %9, align 4
  call void @_ZN4absl12lts_2024072212log_internal10LogMessageD1Ev(ptr noundef nonnull align 8 dereferenceable(16) %7) #18
  call void @llvm.lifetime.end.p0(i64 16, ptr %7) #3
  call void @llvm.lifetime.end.p0(i64 1, ptr %6) #3
  br label %134

98:                                               ; preds = %80
  call void @llvm.lifetime.start.p0(i64 8, ptr %11) #3
  %99 = load i64, ptr %4, align 8, !tbaa !12
  %100 = udiv i64 %99, 4
  store i64 %100, ptr %11, align 8, !tbaa !12
  call void @llvm.lifetime.start.p0(i64 8, ptr %12) #3
  %101 = load i64, ptr %4, align 8, !tbaa !12
  %102 = urem i64 %101, 4
  store i64 %102, ptr %12, align 8, !tbaa !12
  %103 = load i64, ptr %12, align 8, !tbaa !12
  %104 = icmp eq i64 %103, 1
  %105 = zext i1 %104 to i64
  %106 = call i64 @llvm.expect.i64(i64 %105, i64 0)
  %107 = icmp ne i64 %106, 0
  br i1 %107, label %108, label %123

108:                                              ; preds = %98
  call void @llvm.lifetime.start.p0(i64 1, ptr %13) #3
  call void @llvm.lifetime.start.p0(i64 16, ptr %14) #3
  call void @_ZN4absl12lts_2024072212log_internal10LogMessageC1EPKciNS2_8ErrorTagE(ptr noundef nonnull align 8 dereferenceable(16) %14, ptr noundef @.str, i32 noundef 95) #17
  %109 = invoke noundef nonnull align 8 dereferenceable(16) ptr @_ZN4absl12lts_2024072212log_internal10LogMessage14InternalStreamEv(ptr noundef nonnull align 8 dereferenceable(16) %14)
          to label %110 unwind label %119

110:                                              ; preds = %108
  %111 = invoke noundef nonnull align 8 dereferenceable(16) ptr @_ZN4absl12lts_2024072212log_internal10LogMessagelsILi47EEERS2_RAT__Kc(ptr noundef nonnull align 8 dereferenceable(16) %109, ptr noundef nonnull align 1 dereferenceable(47) @.str.2)
          to label %112 unwind label %119

112:                                              ; preds = %110
  %113 = load i64, ptr %4, align 8, !tbaa !12
  %114 = invoke noundef nonnull align 8 dereferenceable(16) ptr @_ZN4absl12lts_2024072212log_internal10LogMessagelsEm(ptr noundef nonnull align 8 dereferenceable(16) %111, i64 noundef %113)
          to label %115 unwind label %119

115:                                              ; preds = %112
  %116 = invoke noundef nonnull align 8 dereferenceable(16) ptr @_ZN4absl12lts_2024072212log_internal10LogMessagelsILi39EEERS2_RAT__Kc(ptr noundef nonnull align 8 dereferenceable(16) %114, ptr noundef nonnull align 1 dereferenceable(39) @.str.3)
          to label %117 unwind label %119

117:                                              ; preds = %115
  invoke void @_ZNKO4absl12lts_2024072212log_internal7VoidifyaaINS1_10LogMessageEEEvRKT_(ptr noundef nonnull align 1 dereferenceable(1) %13, ptr noundef nonnull align 8 dereferenceable(16) %116)
          to label %118 unwind label %119

118:                                              ; preds = %117
  call void @_ZN4absl12lts_2024072212log_internal10LogMessageD1Ev(ptr noundef nonnull align 8 dereferenceable(16) %14) #18
  call void @llvm.lifetime.end.p0(i64 16, ptr %14) #3
  call void @llvm.lifetime.end.p0(i64 1, ptr %13) #3
  store i64 0, ptr %2, align 8
  store i32 1, ptr %10, align 4
  br label %131

119:                                              ; preds = %117, %115, %112, %110, %108
  %120 = landingpad { ptr, i32 }
          cleanup
  %121 = extractvalue { ptr, i32 } %120, 0
  store ptr %121, ptr %8, align 8
  %122 = extractvalue { ptr, i32 } %120, 1
  store i32 %122, ptr %9, align 4
  call void @_ZN4absl12lts_2024072212log_internal10LogMessageD1Ev(ptr noundef nonnull align 8 dereferenceable(16) %14) #18
  call void @llvm.lifetime.end.p0(i64 16, ptr %14) #3
  call void @llvm.lifetime.end.p0(i64 1, ptr %13) #3
  call void @llvm.lifetime.end.p0(i64 8, ptr %12) #3
  call void @llvm.lifetime.end.p0(i64 8, ptr %11) #3
  br label %134

123:                                              ; preds = %98
  %124 = load i64, ptr %11, align 8, !tbaa !12
  %125 = mul i64 %124, 3
  %126 = load i64, ptr %12, align 8, !tbaa !12
  %127 = getelementptr inbounds nuw [4 x i8], ptr @_ZL9tail_xtra, i64 0, i64 %126
  %128 = load i8, ptr %127, align 1, !tbaa !11
  %129 = zext i8 %128 to i64
  %130 = add i64 %125, %129
  store i64 %130, ptr %2, align 8
  store i32 1, ptr %10, align 4
  br label %131

131:                                              ; preds = %123, %118
  call void @llvm.lifetime.end.p0(i64 8, ptr %12) #3
  call void @llvm.lifetime.end.p0(i64 8, ptr %11) #3
  br label %132

132:                                              ; preds = %131, %93
  call void @llvm.lifetime.end.p0(i64 8, ptr %5) #3
  call void @llvm.lifetime.end.p0(i64 8, ptr %4) #3
  %133 = load i64, ptr %2, align 8
  ret i64 %133

134:                                              ; preds = %119, %94
  call void @llvm.lifetime.end.p0(i64 8, ptr %5) #3
  call void @llvm.lifetime.end.p0(i64 8, ptr %4) #3
  br label %135

135:                                              ; preds = %134
  %136 = load ptr, ptr %8, align 8
  %137 = load i32, ptr %9, align 4
  %138 = insertvalue { ptr, i32 } poison, ptr %136, 0
  %139 = insertvalue { ptr, i32 } %138, i32 %137, 1
  resume { ptr, i32 } %139
}